; Function Attrs: mustprogress nofree norecurse nosync nounwind willreturn memory(none) uwtable
define noundef ptr @_ZN4LIEF3ELF9to_stringENS0_7NoteAbi3ABIE(i32 noundef %0) local_unnamed_addr #6 {
  %.not.i.i.i.i.i.i.i = icmp sgt i32 %0, 3
  %.add.i.i = select i1 %.not.i.i.i.i.i.i.i, i64 72, i64 8
  %.add.i.i.sroa.sel.sroa.sel.v = select i1 %.not.i.i.i.i.i.i.i, i64 88, i64 24
  %.add.i.i.sroa.sel.sroa.sel = getelementptr inbounds i8, ptr @__const._ZN4LIEF3ELF9to_stringENS0_7NoteAbi3ABIE.enums2str, i64 %.add.i.i.sroa.sel.sroa.sel.v
  %2 = load i32, ptr %.add.i.i.sroa.sel.sroa.sel, align 8
  %.not.i.i.i.i.i.i.i.i = icmp slt i32 %2, %0
  %.idx.i.i.i.i.i.i.i.i = select i1 %.not.i.i.i.i.i.i.i.i, i64 32, i64 0
  %.add12.i.i = or disjoint i64 %.idx.i.i.i.i.i.i.i.i, %.add.i.i
  %.ptr15.i.i = getelementptr inbounds i8, ptr @__const._ZN4LIEF3ELF9to_stringENS0_7NoteAbi3ABIE.enums2str, i64 %.add12.i.i
  %3 = load i32, ptr %.ptr15.i.i, align 8
  %.not.i.i.i.i.i.i.i.i.i = icmp slt i32 %3, %0
  %.idx.i.i.i.i.i.i.i.i.i = select i1 %.not.i.i.i.i.i.i.i.i.i, i64 16, i64 0
  %.add13.i.i = or disjoint i64 %.add12.i.i, %.idx.i.i.i.i.i.i.i.i.i
  %.not.i.i = icmp eq i64 %.add13.i.i, 120
  br i1 %.not.i.i, label %_ZNK6frozen3mapIN4LIEF3ELF7NoteAbi3ABIEPKcLm7ESt4lessIS4_EE4findIS4_EEPKSt4pairIS4_S6_ERKT_.exit.thread, label %4

4:                                                ; preds = %1
  %.ptr16.i.i = getelementptr inbounds i8, ptr @__const._ZN4LIEF3ELF9to_stringENS0_7NoteAbi3ABIE.enums2str, i64 %.add13.i.i
  %5 = load i32, ptr %.ptr16.i.i, align 8
  %.not17.i.i = icmp sgt i32 %5, %0
  br i1 %.not17.i.i, label %_ZNK6frozen3mapIN4LIEF3ELF7NoteAbi3ABIEPKcLm7ESt4lessIS4_EE4findIS4_EEPKSt4pairIS4_S6_ERKT_.exit.thread, label %6

6:                                                ; preds = %4
  %7 = getelementptr inbounds i8, ptr %.ptr16.i.i, i64 8
  %8 = load ptr, ptr %7, align 8
  br label %_ZNK6frozen3mapIN4LIEF3ELF7NoteAbi3ABIEPKcLm7ESt4lessIS4_EE4findIS4_EEPKSt4pairIS4_S6_ERKT_.exit.thread

_ZNK6frozen3mapIN4LIEF3ELF7NoteAbi3ABIEPKcLm7ESt4lessIS4_EE4findIS4_EEPKSt4pairIS4_S6_ERKT_.exit.thread: ; preds = %4, %1, %6
  %.0 = phi ptr [ %8, %6 ], [ @.str.9, %1 ], [ @.str.9, %4 ]
  ret ptr %.0
}